target datalayout = "e-m:e-p270:32:32-p271:32:32-p272:64:64-i64:64-i128:128-f80:128-n8:16:32:64-S128"
target triple = "x86_64-pc-linux-gnu"

%struct.lua_Debug = type { i32, ptr, ptr, ptr, ptr, i64, i32, i32, i32, i8, i8, i8, i8, i8, i32, i32, [60 x i8], ptr }

@.str.22 = private unnamed_addr constant [9 x i8] c"_HOOKKEY\00", align 1
@hookf.hooknames = internal constant [5 x ptr] [ptr @.str.23, ptr @.str.24, ptr @.str.25, ptr @.str.26, ptr @.str.27], align 16

; Function Attrs: nounwind uwtable
define internal void @hookf(ptr noundef %0, ptr noundef %1) #0 {
  %3 = alloca ptr, align 8
  %4 = alloca ptr, align 8
  store ptr %0, ptr %3, align 8, !tbaa !4
  store ptr %1, ptr %4, align 8, !tbaa !37
  %5 = load ptr, ptr %3, align 8, !tbaa !4
  %6 = call i32 @lua_getfield(ptr noundef %5, i32 noundef -1001000, ptr noundef @.str.22)
  %7 = load ptr, ptr %3, align 8, !tbaa !4
  %8 = call i32 @lua_pushthread(ptr noundef %7)
  %9 = load ptr, ptr %3, align 8, !tbaa !4
  %10 = call i32 @lua_rawget(ptr noundef %9, i32 noundef -2)
  %11 = icmp eq i32 %10, 6
  br i1 %11, label %12, label %35

12:                                               ; preds = %2
  %13 = load ptr, ptr %3, align 8, !tbaa !4
  %14 = load ptr, ptr %4, align 8, !tbaa !37
  %15 = getelementptr inbounds nuw %struct.lua_Debug, ptr %14, i32 0, i32 0
  %16 = load i32, ptr %15, align 8, !tbaa !39
  %17 = sext i32 %16 to i64
  %18 = getelementptr inbounds [5 x ptr], ptr @hookf.hooknames, i64 0, i64 %17
  %19 = load ptr, ptr %18, align 8, !tbaa !14
  %20 = call ptr @lua_pushstring(ptr noundef %13, ptr noundef %19)
  %21 = load ptr, ptr %4, align 8, !tbaa !37
  %22 = getelementptr inbounds nuw %struct.lua_Debug, ptr %21, i32 0, i32 6
  %23 = load i32, ptr %22, align 8, !tbaa !25
  %24 = icmp sge i32 %23, 0
  br i1 %24, label %25, label %31

25:                                               ; preds = %12
  %26 = load ptr, ptr %3, align 8, !tbaa !4
  %27 = load ptr, ptr %4, align 8, !tbaa !37
  %28 = getelementptr inbounds nuw %struct.lua_Debug, ptr %27, i32 0, i32 6
  %29 = load i32, ptr %28, align 8, !tbaa !25
  %30 = sext i32 %29 to i64
  call void @lua_pushinteger(ptr noundef %26, i64 noundef %30)
  br label %33

31:                                               ; preds = %12
  %32 = load ptr, ptr %3, align 8, !tbaa !4
  call void @lua_pushnil(ptr noundef %32)
  br label %33

33:                                               ; preds = %31, %25
  %34 = load ptr, ptr %3, align 8, !tbaa !4
  call void @lua_callk(ptr noundef %34, i32 noundef 2, i32 noundef 0, i64 noundef 0, ptr noundef null)
  br label %35

35:                                               ; preds = %33, %2
  ret void
}