; Function Attrs: nounwind uwtable
define internal void @hookf(ptr noundef %0, ptr noundef readonly captures(none) %1) #0 {
  %3 = tail call i32 @lua_getfield(ptr noundef %0, i32 noundef -1001000, ptr noundef nonnull @.str.22) #8
  %4 = tail call i32 @lua_pushthread(ptr noundef %0) #8
  %5 = tail call i32 @lua_rawget(ptr noundef %0, i32 noundef -2) #8
  %6 = icmp eq i32 %5, 6
  br i1 %6, label %7, label %20

7:                                                ; preds = %2
  %8 = load i32, ptr %1, align 8, !tbaa !32
  %9 = sext i32 %8 to i64
  %10 = getelementptr inbounds [5 x ptr], ptr @hookf.hooknames, i64 0, i64 %9
  %11 = load ptr, ptr %10, align 8, !tbaa !33
  %12 = tail call ptr @lua_pushstring(ptr noundef %0, ptr noundef %11) #8
  %13 = getelementptr inbounds nuw i8, ptr %1, i64 48
  %14 = load i32, ptr %13, align 8, !tbaa !21
  %15 = icmp sgt i32 %14, -1
  br i1 %15, label %16, label %18

16:                                               ; preds = %7
  %17 = zext nneg i32 %14 to i64
  tail call void @lua_pushinteger(ptr noundef %0, i64 noundef %17) #8
  br label %19

18:                                               ; preds = %7
  tail call void @lua_pushnil(ptr noundef %0) #8
  br label %19

19:                                               ; preds = %18, %16
  tail call void @lua_callk(ptr noundef %0, i32 noundef 2, i32 noundef 0, i64 noundef 0, ptr noundef null) #8
  br label %20

20:                                               ; preds = %19, %2
  ret void
}